#include <math.h>
#include <stdio.h>
#include <stdlib.h>
#include <string.h>
#include <iostream>
using namespace std;

//*****************************
//*?????? 1300012809   **
//*???2013.11.16          **
//*?????2?N??        **
//*****************************
int main()
{
	int n, i, j, changdu;                                                
	changdu = 1;                                            //?????
	int a[1005] = {0};                                      //?????a
	cin >> n;
	for (i = 0; i <= n; i++)                                //??n+1?
	{
		if (i == 0) a[0] = 1; 
		if (i == 1) a[0] = 2;
		if (i != 0 && i != 1)
		{
			if (a[changdu-1] >= 5 ) changdu += 1;           //??*2????????????????
			for (j = 0; j < changdu; j++)
			{
				a[j] = a[j]*2;                              //????????
			}
			for (j = 0; j < changdu; j++)
			{
				a[j+1] = a[j] / 10 + a[j+1];                //??10???
				a[j] = a[j] % 10 ;
			}

		}
	}
	for (j = changdu-1; j >= 0; j--) cout << a[j];          //??????
	cout << endl;
	return 0;
}
